; Function Attrs: mustprogress nounwind uwtable
define dso_local void @_ZN4llvm21PrettyStackTraceEntryC2Ev(ptr noundef nonnull align 8 dereferenceable(16) initializes((0, 16)) %0) unnamed_addr #3 align 2 {
  store ptr getelementptr inbounds nuw inrange(-16, 24) (i8, ptr @_ZTVN4llvm21PrettyStackTraceEntryE, i64 16), ptr %0, align 8
  %2 = load atomic volatile i32, ptr @_ZL30GlobalSigInfoGenerationCounter monotonic, align 4
  %3 = tail call align 4 ptr @llvm.threadlocal.address.p0(ptr align 4 @_ZL35ThreadLocalSigInfoGenerationCounter)
  %4 = load i32, ptr %3, align 4
  %5 = icmp eq i32 %4, 0
  %6 = icmp eq i32 %4, %2
  %or.cond.i = select i1 %5, i1 true, i1 %6
  br i1 %or.cond.i, label %_ZL23printForSigInfoIfNeededv.exit, label %7

7:                                                ; preds = %1
  %8 = tail call noundef nonnull align 8 dereferenceable(96) ptr @_ZN4llvm4errsEv() #19
  tail call fastcc void @_ZL18PrintCurStackTraceRN4llvm11raw_ostreamE(ptr noundef nonnull align 8 dereferenceable(48) %8)
  store i32 %2, ptr %3, align 4
  br label %_ZL23printForSigInfoIfNeededv.exit

_ZL23printForSigInfoIfNeededv.exit:               ; preds = %1, %7
  %9 = tail call align 8 ptr @llvm.threadlocal.address.p0(ptr align 8 @_ZL20PrettyStackTraceHead)
  %10 = load ptr, ptr %9, align 8
  %11 = getelementptr inbounds nuw i8, ptr %0, i64 8
  store ptr %10, ptr %11, align 8
  store ptr %0, ptr %9, align 8
  ret void
}